TN:
SF:/home/abhishek/Test-driven-development-Enpm700-group1/include/PIDController.hpp
FN:57,_ZN13PIDControllerC2Eddd
FNDA:2,_ZN13PIDControllerC2Eddd
FNF:1
FNH:1
DA:57,2
DA:58,2
LF:2
LH:2
end_of_record
TN:
SF:/home/abhishek/Test-driven-development-Enpm700-group1/myPID/PIDController.cpp
FN:20,_ZN13PIDController7computeEdd
FN:50,_ZNK13PIDController5getKpEv
FN:54,_ZN13PIDController5setKpEd
FN:58,_ZNK13PIDController5getKiEv
FN:62,_ZN13PIDController5setKiEd
FN:66,_ZNK13PIDController5getKdEv
FN:70,_ZN13PIDController5setKdEd
FNDA:2,_ZNK13PIDController5getKdEv
FNDA:1,_ZN13PIDController5setKpEd
FNDA:1,_ZN13PIDController7computeEdd
FNDA:2,_ZNK13PIDController5getKpEv
FNDA:1,_ZN13PIDController5setKdEd
FNDA:1,_ZN13PIDController5setKiEd
FNDA:2,_ZNK13PIDController5getKiEv
FNF:7
FNH:7
DA:20,1
DA:21,1
DA:24,1
DA:27,1
DA:28,1
DA:31,1
DA:32,1
DA:35,1
DA:38,1
DA:41,1
DA:42,1
DA:43,1
DA:44,1
DA:45,1
DA:47,1
DA:50,2
DA:51,2
DA:54,1
DA:55,1
DA:56,1
DA:58,2
DA:59,2
DA:62,1
DA:63,1
DA:64,1
DA:66,2
DA:67,2
DA:70,1
DA:71,1
DA:72,1
LF:30
LH:30
end_of_record
TN:
SF:/home/abhishek/Test-driven-development-Enpm700-group1/test/test1.cpp
FN:22,_ZN34PIDControllerTest_TestCompute_Test8TestBodyEv
FN:22,_ZN34PIDControllerTest_TestCompute_TestD0Ev
FN:22,_ZN34PIDControllerTest_TestCompute_TestD2Ev
FN:22,_ZN34PIDControllerTest_TestCompute_TestC2Ev
FN:45,_ZN44PIDControllerTest_TestGettersAndSetters_TestC2Ev
FN:45,_ZN44PIDControllerTest_TestGettersAndSetters_Test8TestBodyEv
FN:45,_ZN44PIDControllerTest_TestGettersAndSetters_TestD0Ev
FN:45,_ZN44PIDControllerTest_TestGettersAndSetters_TestD2Ev
FNDA:1,_ZN34PIDControllerTest_TestCompute_TestD2Ev
FNDA:1,_ZN34PIDControllerTest_TestCompute_TestC2Ev
FNDA:1,_ZN44PIDControllerTest_TestGettersAndSetters_TestD2Ev
FNDA:1,_ZN34PIDControllerTest_TestCompute_TestD0Ev
FNDA:1,_ZN44PIDControllerTest_TestGettersAndSetters_TestC2Ev
FNDA:1,_ZN44PIDControllerTest_TestGettersAndSetters_TestD0Ev
FNDA:1,_ZN44PIDControllerTest_TestGettersAndSetters_Test8TestBodyEv
FNDA:1,_ZN34PIDControllerTest_TestCompute_Test8TestBodyEv
FNF:8
FNH:8
DA:22,4
DA:23,1
DA:24,1
DA:25,1
DA:26,1
DA:29,1
DA:30,1
DA:32,1
DA:33,1
DA:34,1
DA:36,1
DA:45,4
DA:46,1
DA:48,1
DA:49,1
DA:50,1
DA:52,1
DA:53,1
DA:54,1
DA:56,1
DA:57,1
DA:58,1
DA:59,1
LF:23
LH:23
end_of_record
